; Function Attrs: nounwind uwtable
define internal void @X11_FreeCursor(ptr noundef %0) #0 {
  %2 = getelementptr inbounds nuw i8, ptr %0, i64 8
  %3 = load ptr, ptr %2, align 8
  %4 = load i64, ptr %3, align 8
  %.not = icmp eq i64 %4, 0
  br i1 %.not, label %12, label %5

5:                                                ; preds = %1
  %6 = load ptr, ptr @X11_XFreeCursor, align 8
  %7 = tail call ptr @SDL_GetVideoDevice() #5
  %8 = getelementptr inbounds nuw i8, ptr %7, i64 1656
  %9 = load ptr, ptr %8, align 8
  %10 = load ptr, ptr %9, align 8
  %11 = tail call i32 %6(ptr noundef %10, i64 noundef %4) #5
  %.pre = load ptr, ptr %2, align 8
  br label %12

12:                                               ; preds = %5, %1
  %13 = phi ptr [ %.pre, %5 ], [ %3, %1 ]
  tail call void @SDL_free_REAL(ptr noundef %13) #5
  tail call void @SDL_free_REAL(ptr noundef nonnull %0) #5
  ret void
}